; Function Attrs: mustprogress nofree norecurse nosync nounwind willreturn memory(read, inaccessiblemem: none) uwtable
define hidden i64 @_ZN2cv11bioinspired10RetinaImpl12getInputSizeEv(ptr noundef nonnull readonly align 8 captures(none) dereferenceable(112) %0) unnamed_addr #8 align 2 {
  %2 = getelementptr inbounds nuw i8, ptr %0, i64 88
  %3 = load ptr, ptr %2, align 8, !tbaa !70
  %4 = getelementptr inbounds nuw i8, ptr %3, i64 1200
  %5 = load ptr, ptr %4, align 8, !tbaa !74
  %.not.i = icmp eq ptr %5, null
  %6 = getelementptr inbounds nuw i8, ptr %5, i64 40
  %7 = getelementptr inbounds nuw i8, ptr %3, i64 80
  %.0.in.in.i = select i1 %.not.i, ptr %7, ptr %6
  %.0.in.i = load i64, ptr %.0.in.in.i, align 8, !tbaa !86
  %8 = getelementptr inbounds nuw i8, ptr %5, i64 32
  %9 = getelementptr inbounds nuw i8, ptr %3, i64 72
  %.0.in.in.i2 = select i1 %.not.i, ptr %9, ptr %8
  %.0.in.i3 = load i64, ptr %.0.in.in.i2, align 8, !tbaa !87
  %.sroa.2.0.insert.ext = shl i64 %.0.in.i3, 32
  %.sroa.0.0.insert.ext = and i64 %.0.in.i, 4294967295
  %.sroa.0.0.insert.insert = or disjoint i64 %.sroa.2.0.insert.ext, %.sroa.0.0.insert.ext
  ret i64 %.sroa.0.0.insert.insert
}